target datalayout = "e-m:e-p270:32:32-p271:32:32-p272:64:64-i64:64-i128:128-f80:128-n8:16:32:64-S128"
target triple = "x86_64-pc-linux-gnu"

%struct.AVFormatContext = type { ptr, ptr, ptr, ptr, ptr, i32, i32, ptr, i32, ptr, i32, ptr, ptr, i64, i64, i64, i32, i32, i32, i64, i64, ptr, i32, i32, ptr, i32, i32, i32, i32, ptr, i64, i32, i32, %struct.AVIOInterruptCB, i32, i32, i32, i32, i64, i32, i32, i32, i32, i32, i32, i32, i32, i32, i32, i32, i32, i64, i32, i32, i32, i32, i32, ptr, ptr, ptr, ptr, i32, ptr, ptr, ptr, ptr, i32, ptr, ptr, i64, ptr, ptr, ptr, i64 }
%struct.AVIOInterruptCB = type { ptr, ptr }
%struct.AVStream = type { ptr, i32, i32, ptr, ptr, %struct.AVRational, i64, i64, i64, i32, i32, %struct.AVRational, ptr, %struct.AVRational, %struct.AVPacket, i32, %struct.AVRational, i32 }
%struct.AVPacket = type { ptr, i64, i64, ptr, i32, i32, i32, ptr, i32, i64, i64, ptr, ptr, %struct.AVRational }
%struct.AVRational = type { i32, i32 }
%struct.AVCodecParameters = type { i32, i32, i32, ptr, i32, ptr, i32, i32, i64, i32, i32, i32, i32, i32, i32, %struct.AVRational, %struct.AVRational, i32, i32, i32, i32, i32, i32, i32, %struct.AVChannelLayout, i32, i32, i32, i32, i32, i32 }
%struct.AVChannelLayout = type { i32, i32, %union.anon, ptr }
%union.anon = type { i64 }
%struct.RedSparkContext = type { i32 }

; Function Attrs: nounwind uwtable
define internal i32 @redspark_read_packet(ptr noundef %0, ptr noundef %1) #0 {
  %3 = alloca i32, align 4
  %4 = alloca ptr, align 8
  %5 = alloca ptr, align 8
  %6 = alloca ptr, align 8
  %7 = alloca ptr, align 8
  %8 = alloca i32, align 4
  %9 = alloca i32, align 4
  %10 = alloca i32, align 4
  store ptr %0, ptr %4, align 8, !tbaa !15
  store ptr %1, ptr %5, align 8, !tbaa !59
  call void @llvm.lifetime.start.p0(i64 8, ptr %6) #8
  %11 = load ptr, ptr %4, align 8, !tbaa !15
  %12 = getelementptr inbounds nuw %struct.AVFormatContext, ptr %11, i32 0, i32 7
  %13 = load ptr, ptr %12, align 8, !tbaa !61
  %14 = getelementptr inbounds ptr, ptr %13, i64 0
  %15 = load ptr, ptr %14, align 8, !tbaa !36
  %16 = getelementptr inbounds nuw %struct.AVStream, ptr %15, i32 0, i32 3
  %17 = load ptr, ptr %16, align 8, !tbaa !38
  store ptr %17, ptr %6, align 8, !tbaa !45
  call void @llvm.lifetime.start.p0(i64 8, ptr %7) #8
  %18 = load ptr, ptr %4, align 8, !tbaa !15
  %19 = getelementptr inbounds nuw %struct.AVFormatContext, ptr %18, i32 0, i32 3
  %20 = load ptr, ptr %19, align 8, !tbaa !33
  store ptr %20, ptr %7, align 8, !tbaa !34
  call void @llvm.lifetime.start.p0(i64 4, ptr %8) #8
  %21 = load ptr, ptr %6, align 8, !tbaa !45
  %22 = getelementptr inbounds nuw %struct.AVCodecParameters, ptr %21, i32 0, i32 24
  %23 = getelementptr inbounds nuw %struct.AVChannelLayout, ptr %22, i32 0, i32 1
  %24 = load i32, ptr %23, align 4, !tbaa !56
  %25 = mul nsw i32 8, %24
  store i32 %25, ptr %8, align 4, !tbaa !14
  call void @llvm.lifetime.start.p0(i64 4, ptr %9) #8
  %26 = load ptr, ptr %4, align 8, !tbaa !15
  %27 = getelementptr inbounds nuw %struct.AVFormatContext, ptr %26, i32 0, i32 4
  %28 = load ptr, ptr %27, align 8, !tbaa !17
  %29 = call i32 @avio_feof(ptr noundef %28)
  %30 = icmp ne i32 %29, 0
  br i1 %30, label %44, label %31

31:                                               ; preds = %2
  %32 = load ptr, ptr %7, align 8, !tbaa !34
  %33 = getelementptr inbounds nuw %struct.RedSparkContext, ptr %32, i32 0, i32 0
  %34 = load i32, ptr %33, align 4, !tbaa !54
  %35 = sext i32 %34 to i64
  %36 = load ptr, ptr %4, align 8, !tbaa !15
  %37 = getelementptr inbounds nuw %struct.AVFormatContext, ptr %36, i32 0, i32 7
  %38 = load ptr, ptr %37, align 8, !tbaa !61
  %39 = getelementptr inbounds ptr, ptr %38, i64 0
  %40 = load ptr, ptr %39, align 8, !tbaa !36
  %41 = getelementptr inbounds nuw %struct.AVStream, ptr %40, i32 0, i32 7
  %42 = load i64, ptr %41, align 8, !tbaa !53
  %43 = icmp eq i64 %35, %42
  br i1 %43, label %44, label %45

44:                                               ; preds = %31, %2
  store i32 -541478725, ptr %3, align 4
  store i32 1, ptr %10, align 4
  br label %71

45:                                               ; preds = %31
  %46 = load ptr, ptr %4, align 8, !tbaa !15
  %47 = getelementptr inbounds nuw %struct.AVFormatContext, ptr %46, i32 0, i32 4
  %48 = load ptr, ptr %47, align 8, !tbaa !17
  %49 = load ptr, ptr %5, align 8, !tbaa !59
  %50 = load i32, ptr %8, align 4, !tbaa !14
  %51 = call i32 @av_get_packet(ptr noundef %48, ptr noundef %49, i32 noundef %50)
  store i32 %51, ptr %9, align 4, !tbaa !14
  %52 = load i32, ptr %9, align 4, !tbaa !14
  %53 = load i32, ptr %8, align 4, !tbaa !14
  %54 = icmp ne i32 %52, %53
  br i1 %54, label %55, label %56

55:                                               ; preds = %45
  store i32 -5, ptr %3, align 4
  store i32 1, ptr %10, align 4
  br label %71

56:                                               ; preds = %45
  %57 = load ptr, ptr %5, align 8, !tbaa !59
  %58 = getelementptr inbounds nuw %struct.AVPacket, ptr %57, i32 0, i32 9
  store i64 14, ptr %58, align 8, !tbaa !62
  %59 = load ptr, ptr %5, align 8, !tbaa !59
  %60 = getelementptr inbounds nuw %struct.AVPacket, ptr %59, i32 0, i32 9
  %61 = load i64, ptr %60, align 8, !tbaa !62
  %62 = load ptr, ptr %7, align 8, !tbaa !34
  %63 = getelementptr inbounds nuw %struct.RedSparkContext, ptr %62, i32 0, i32 0
  %64 = load i32, ptr %63, align 4, !tbaa !54
  %65 = sext i32 %64 to i64
  %66 = add nsw i64 %65, %61
  %67 = trunc i64 %66 to i32
  store i32 %67, ptr %63, align 4, !tbaa !54
  %68 = load ptr, ptr %5, align 8, !tbaa !59
  %69 = getelementptr inbounds nuw %struct.AVPacket, ptr %68, i32 0, i32 5
  store i32 0, ptr %69, align 4, !tbaa !63
  %70 = load i32, ptr %9, align 4, !tbaa !14
  store i32 %70, ptr %3, align 4
  store i32 1, ptr %10, align 4
  br label %71

71:                                               ; preds = %56, %55, %44
  call void @llvm.lifetime.end.p0(i64 4, ptr %9) #8
  call void @llvm.lifetime.end.p0(i64 4, ptr %8) #8
  call void @llvm.lifetime.end.p0(i64 8, ptr %7) #8
  call void @llvm.lifetime.end.p0(i64 8, ptr %6) #8
  %72 = load i32, ptr %3, align 4
  ret i32 %72
}