; Function Attrs: nounwind uwtable
define internal range(i32 -2147483648, 2147483641) i32 @redspark_read_packet(ptr noundef readonly captures(none) %0, ptr noundef %1) #1 {
  %3 = getelementptr inbounds nuw i8, ptr %0, i64 48
  %4 = load ptr, ptr %3, align 8, !tbaa !48
  %5 = load ptr, ptr %4, align 8, !tbaa !49
  %6 = getelementptr inbounds nuw i8, ptr %5, i64 16
  %7 = load ptr, ptr %6, align 8, !tbaa !28
  %8 = getelementptr inbounds nuw i8, ptr %0, i64 24
  %9 = load ptr, ptr %8, align 8, !tbaa !27
  %10 = getelementptr inbounds nuw i8, ptr %7, i64 132
  %11 = load i32, ptr %10, align 4, !tbaa !45
  %12 = shl nsw i32 %11, 3
  %13 = getelementptr inbounds nuw i8, ptr %0, i64 32
  %14 = load ptr, ptr %13, align 8, !tbaa !12
  %15 = tail call i32 @avio_feof(ptr noundef %14) #6
  %.not = icmp eq i32 %15, 0
  br i1 %.not, label %16, label %32

16:                                               ; preds = %2
  %17 = load i32, ptr %9, align 4, !tbaa !43
  %18 = sext i32 %17 to i64
  %19 = load ptr, ptr %3, align 8, !tbaa !48
  %20 = load ptr, ptr %19, align 8, !tbaa !49
  %21 = getelementptr inbounds nuw i8, ptr %20, i64 48
  %22 = load i64, ptr %21, align 8, !tbaa !42
  %23 = icmp eq i64 %22, %18
  br i1 %23, label %32, label %24

24:                                               ; preds = %16
  %25 = load ptr, ptr %13, align 8, !tbaa !12
  %26 = tail call i32 @av_get_packet(ptr noundef %25, ptr noundef %1, i32 noundef %12) #6
  %.not17 = icmp eq i32 %26, %12
  br i1 %.not17, label %27, label %32

27:                                               ; preds = %24
  %28 = getelementptr inbounds nuw i8, ptr %1, i64 64
  store i64 14, ptr %28, align 8, !tbaa !51
  %29 = load i32, ptr %9, align 4, !tbaa !43
  %30 = add i32 %29, 14
  store i32 %30, ptr %9, align 4, !tbaa !43
  %31 = getelementptr inbounds nuw i8, ptr %1, i64 36
  store i32 0, ptr %31, align 4, !tbaa !52
  br label %32

32:                                               ; preds = %24, %2, %16, %27
  %.0 = phi i32 [ %12, %27 ], [ -541478725, %16 ], [ -541478725, %2 ], [ -5, %24 ]
  ret i32 %.0
}